; Function Attrs: nofree norecurse nosync nounwind memory(read, argmem: readwrite, inaccessiblemem: none) uwtable
define internal fastcc range(i32 0, 17) i32 @SzReadNumber32(ptr noundef nonnull captures(none) %0, ptr noundef writeonly captures(none) %1) unnamed_addr #5 {
  %3 = getelementptr inbounds nuw i8, ptr %0, i64 8
  %4 = load i64, ptr %3, align 8
  %5 = icmp eq i64 %4, 0
  br i1 %5, label %SzReadNumber.exit, label %6

6:                                                ; preds = %2
  %7 = add i64 %4, -1
  store i64 %7, ptr %3, align 8
  %8 = load ptr, ptr %0, align 8
  %9 = getelementptr inbounds nuw i8, ptr %8, i64 1
  store ptr %9, ptr %0, align 8
  %10 = load i8, ptr %8, align 1
  %11 = zext i8 %10 to i32
  br label %12

12:                                               ; preds = %27, %6
  %13 = phi ptr [ %9, %6 ], [ %29, %27 ]
  %14 = phi i64 [ %7, %6 ], [ %28, %27 ]
  %.07 = phi i64 [ 0, %6 ], [ %34, %27 ]
  %indvars.iv.i = phi i64 [ 0, %6 ], [ %indvars.iv.next.i, %27 ]
  %.01738.i = phi i32 [ 128, %6 ], [ %35, %27 ]
  %15 = and i32 %.01738.i, %11
  %16 = icmp eq i32 %15, 0
  br i1 %16, label %17, label %25

17:                                               ; preds = %12
  %18 = add nuw nsw i32 %.01738.i, 255
  %19 = and i32 %18, %11
  %20 = zext nneg i32 %19 to i64
  %21 = shl i64 %indvars.iv.i, 3
  %22 = and i64 %21, 4294967288
  %23 = shl nuw i64 %20, %22
  %24 = add i64 %23, %.07
  br label %.loopexit

25:                                               ; preds = %12
  %26 = icmp eq i64 %14, 0
  br i1 %26, label %SzReadNumber.exit, label %27

27:                                               ; preds = %25
  %28 = add i64 %14, -1
  store i64 %28, ptr %3, align 8
  %29 = getelementptr inbounds nuw i8, ptr %13, i64 1
  store ptr %29, ptr %0, align 8
  %30 = load i8, ptr %13, align 1
  %31 = zext i8 %30 to i64
  %32 = shl nuw nsw i64 %indvars.iv.i, 3
  %33 = shl nuw i64 %31, %32
  %34 = or i64 %33, %.07
  %35 = lshr i32 %.01738.i, 1
  %indvars.iv.next.i = add nuw nsw i64 %indvars.iv.i, 1
  %exitcond.not.i = icmp eq i64 %indvars.iv.next.i, 8
  br i1 %exitcond.not.i, label %.loopexit, label %12

.loopexit:                                        ; preds = %27, %17
  %.1.ph = phi i64 [ %24, %17 ], [ %34, %27 ]
  %36 = icmp ugt i64 %.1.ph, 2147483647
  br i1 %36, label %SzReadNumber.exit, label %37

37:                                               ; preds = %.loopexit
  %38 = trunc nuw nsw i64 %.1.ph to i32
  store i32 %38, ptr %1, align 4
  br label %SzReadNumber.exit

SzReadNumber.exit:                                ; preds = %25, %2, %.loopexit, %37
  %.0 = phi i32 [ 0, %37 ], [ 4, %.loopexit ], [ 16, %2 ], [ 16, %25 ]
  ret i32 %.0
}